target datalayout = "e-m:e-p270:32:32-p271:32:32-p272:64:64-i64:64-i128:128-f80:128-n8:16:32:64-S128"
target triple = "x86_64-pc-linux-gnu"

%class.ControlIntrinsicValidator = type { i8, ptr }

@.str.34 = private unnamed_addr constant [57 x i8] c"Unrecognized intrinsic detected in DisableIntrinsic: %s\0A\00", align 1

; Function Attrs: mustprogress nounwind uwtable
define linkonce_odr hidden void @_ZN25ControlIntrinsicValidatorD2Ev(ptr noundef nonnull align 8 dereferenceable(16) %0) unnamed_addr #1 comdat align 2 {
  %2 = alloca ptr, align 8
  store ptr %0, ptr %2, align 8
  %3 = load ptr, ptr %2, align 8
  %4 = getelementptr inbounds %class.ControlIntrinsicValidator, ptr %3, i32 0, i32 1
  %5 = load ptr, ptr %4, align 8
  %6 = icmp ne ptr %5, null
  br i1 %6, label %7, label %10

7:                                                ; preds = %1
  %8 = getelementptr inbounds %class.ControlIntrinsicValidator, ptr %3, i32 0, i32 1
  %9 = load ptr, ptr %8, align 8
  call void @_Z8FreeHeapPv(ptr noundef %9)
  br label %10

10:                                               ; preds = %7, %1
  ret void
}

; Function Attrs: mustprogress nounwind uwtable
define linkonce_odr hidden noundef ptr @_ZNK25ControlIntrinsicValidator4whatEv(ptr noundef nonnull align 8 dereferenceable(16) %0) #1 comdat align 2 {
  %2 = alloca ptr, align 8
  store ptr %0, ptr %2, align 8
  %3 = load ptr, ptr %2, align 8
  %4 = getelementptr inbounds %class.ControlIntrinsicValidator, ptr %3, i32 0, i32 1
  %5 = load ptr, ptr %4, align 8
  ret ptr %5
}

; Function Attrs: mustprogress nounwind uwtable
define linkonce_odr hidden noundef zeroext i1 @_ZNK25ControlIntrinsicValidator8is_validEv(ptr noundef nonnull align 8 dereferenceable(16) %0) #1 comdat align 2 {
  %2 = alloca ptr, align 8
  store ptr %0, ptr %2, align 8
  %3 = load ptr, ptr %2, align 8
  %4 = getelementptr inbounds %class.ControlIntrinsicValidator, ptr %3, i32 0, i32 0
  %5 = load i8, ptr %4, align 8
  %6 = trunc i8 %5 to i1
  ret i1 %6
}

; Function Attrs: mustprogress nounwind uwtable
define hidden noundef i32 @_Z30DisableIntrinsicConstraintFuncPKcb(ptr noundef %0, i1 noundef zeroext %1) #1 {
  %3 = alloca i32, align 4
  %4 = alloca ptr, align 8
  %5 = alloca i8, align 1
  %6 = alloca %class.ControlIntrinsicValidator, align 8
  %7 = alloca i32, align 4
  store ptr %0, ptr %4, align 8
  %8 = zext i1 %1 to i8
  store i8 %8, ptr %5, align 1
  %9 = load ptr, ptr %4, align 8
  call void @_ZN25ControlIntrinsicValidatorC2EPKcb(ptr noundef nonnull align 8 dereferenceable(16) %6, ptr noundef %9, i1 noundef zeroext true)
  %10 = call noundef zeroext i1 @_ZNK25ControlIntrinsicValidator8is_validEv(ptr noundef nonnull align 8 dereferenceable(16) %6)
  br i1 %10, label %15, label %11

11:                                               ; preds = %2
  %12 = load i8, ptr %5, align 1
  %13 = trunc i8 %12 to i1
  %14 = call noundef ptr @_ZNK25ControlIntrinsicValidator4whatEv(ptr noundef nonnull align 8 dereferenceable(16) %6)
  call void (i1, ptr, ...) @_ZN7JVMFlag10printErrorEbPKcz(i1 noundef zeroext %13, ptr noundef @.str.34, ptr noundef %14)
  store i32 6, ptr %3, align 4
  store i32 1, ptr %7, align 4
  br label %16

15:                                               ; preds = %2
  store i32 0, ptr %3, align 4
  store i32 1, ptr %7, align 4
  br label %16

16:                                               ; preds = %15, %11
  call void @_ZN25ControlIntrinsicValidatorD2Ev(ptr noundef nonnull align 8 dereferenceable(16) %6) #5
  %17 = load i32, ptr %3, align 4
  ret i32 %17
}