; Function Attrs: mustprogress nounwind uwtable
define hidden noundef range(i32 0, 7) i32 @_Z30DisableIntrinsicConstraintFuncPKcb(ptr noundef %0, i1 noundef zeroext %1) local_unnamed_addr #0 {
  %3 = alloca %class.ControlIntrinsicValidator, align 8
  call void @_ZN25ControlIntrinsicValidatorC2EPKcb(ptr noundef nonnull align 8 dereferenceable(16) %3, ptr noundef %0, i1 noundef zeroext true)
  %4 = load i8, ptr %3, align 8
  %5 = trunc i8 %4 to i1
  br i1 %5, label %9, label %6

6:                                                ; preds = %2
  %7 = getelementptr inbounds i8, ptr %3, i64 8
  %8 = load ptr, ptr %7, align 8
  call void (i1, ptr, ...) @_ZN7JVMFlag10printErrorEbPKcz(i1 noundef zeroext %1, ptr noundef nonnull @.str.34, ptr noundef %8) #6
  br label %9

9:                                                ; preds = %2, %6
  %.0 = phi i32 [ 6, %6 ], [ 0, %2 ]
  %10 = getelementptr inbounds i8, ptr %3, i64 8
  %11 = load ptr, ptr %10, align 8
  %.not.i = icmp eq ptr %11, null
  br i1 %.not.i, label %_ZN25ControlIntrinsicValidatorD2Ev.exit, label %12

12:                                               ; preds = %9
  call void @_Z8FreeHeapPv(ptr noundef nonnull %11) #6
  br label %_ZN25ControlIntrinsicValidatorD2Ev.exit

_ZN25ControlIntrinsicValidatorD2Ev.exit:          ; preds = %9, %12
  ret i32 %.0
}